target datalayout = "e-m:e-p270:32:32-p271:32:32-p272:64:64-i64:64-i128:128-f80:128-n8:16:32:64-S128"
target triple = "x86_64-unknown-linux-gnu"

%struct.QEMUSnapshotInfo = type { [128 x i8], [256 x i8], i64, i32, i32, i64, i64 }

@.str.6 = private unnamed_addr constant [22 x i8] c"qemu_in_main_thread()\00", align 1
@.str.7 = private unnamed_addr constant [25 x i8] c"../qemu/block/snapshot.c\00", align 1
@__PRETTY_FUNCTION__.bdrv_snapshot_find = private unnamed_addr constant [77 x i8] c"int bdrv_snapshot_find(BlockDriverState *, QEMUSnapshotInfo *, const char *)\00", align 1

; Function Attrs: nounwind sspstrong uwtable
define dso_local i32 @bdrv_snapshot_find(ptr noundef %bs, ptr noundef %sn_info, ptr noundef %name) #0 {
entry:
  %retval = alloca i32, align 4
  %bs.addr = alloca ptr, align 8
  %sn_info.addr = alloca ptr, align 8
  %name.addr = alloca ptr, align 8
  %sn_tab = alloca ptr, align 8
  %sn = alloca ptr, align 8
  %nb_sns = alloca i32, align 4
  %i = alloca i32, align 4
  %ret = alloca i32, align 4
  store ptr %bs, ptr %bs.addr, align 8
  store ptr %sn_info, ptr %sn_info.addr, align 8
  store ptr %name, ptr %name.addr, align 8
  br label %do.body

do.body:                                          ; preds = %entry
  %call = call zeroext i1 @qemu_in_main_thread()
  br i1 %call, label %if.then, label %if.else

if.then:                                          ; preds = %do.body
  br label %if.end

if.else:                                          ; preds = %do.body
  call void @__assert_fail(ptr noundef @.str.6, ptr noundef @.str.7, i32 noundef 60, ptr noundef @__PRETTY_FUNCTION__.bdrv_snapshot_find) #6
  unreachable

if.end:                                           ; preds = %if.then
  br label %do.end

do.end:                                           ; preds = %if.end
  store i32 -2, ptr %ret, align 4
  %0 = load ptr, ptr %bs.addr, align 8
  %call1 = call i32 @bdrv_snapshot_list(ptr noundef %0, ptr noundef %sn_tab)
  store i32 %call1, ptr %nb_sns, align 4
  %1 = load i32, ptr %nb_sns, align 4
  %cmp = icmp slt i32 %1, 0
  br i1 %cmp, label %if.then2, label %if.end3

if.then2:                                         ; preds = %do.end
  %2 = load i32, ptr %ret, align 4
  store i32 %2, ptr %retval, align 4
  br label %return

if.end3:                                          ; preds = %do.end
  store i32 0, ptr %i, align 4
  br label %for.cond

for.cond:                                         ; preds = %for.inc, %if.end3
  %3 = load i32, ptr %i, align 4
  %4 = load i32, ptr %nb_sns, align 4
  %cmp4 = icmp slt i32 %3, %4
  br i1 %cmp4, label %for.body, label %for.end

for.body:                                         ; preds = %for.cond
  %5 = load ptr, ptr %sn_tab, align 8
  %6 = load i32, ptr %i, align 4
  %idxprom = sext i32 %6 to i64
  %arrayidx = getelementptr %struct.QEMUSnapshotInfo, ptr %5, i64 %idxprom
  store ptr %arrayidx, ptr %sn, align 8
  %7 = load ptr, ptr %sn, align 8
  %name5 = getelementptr inbounds %struct.QEMUSnapshotInfo, ptr %7, i32 0, i32 1
  %arraydecay = getelementptr inbounds [256 x i8], ptr %name5, i64 0, i64 0
  %8 = load ptr, ptr %name.addr, align 8
  %call6 = call i32 @strcmp(ptr noundef %arraydecay, ptr noundef %8) #7
  %tobool = icmp ne i32 %call6, 0
  br i1 %tobool, label %if.end8, label %if.then7

if.then7:                                         ; preds = %for.body
  %9 = load ptr, ptr %sn_info.addr, align 8
  %10 = load ptr, ptr %sn, align 8
  call void @llvm.memcpy.p0.p0.i64(ptr align 8 %9, ptr align 8 %10, i64 416, i1 false)
  store i32 0, ptr %ret, align 4
  br label %for.end

if.end8:                                          ; preds = %for.body
  br label %for.inc

for.inc:                                          ; preds = %if.end8
  %11 = load i32, ptr %i, align 4
  %inc = add i32 %11, 1
  store i32 %inc, ptr %i, align 4
  br label %for.cond, !llvm.loop !5

for.end:                                          ; preds = %if.then7, %for.cond
  %12 = load ptr, ptr %sn_tab, align 8
  call void @g_free(ptr noundef %12)
  %13 = load i32, ptr %ret, align 4
  store i32 %13, ptr %retval, align 4
  br label %return

return:                                           ; preds = %for.end, %if.then2
  %14 = load i32, ptr %retval, align 4
  ret i32 %14
}