; Function Attrs: nounwind sspstrong uwtable
define dso_local range(i32 -2, 1) i32 @bdrv_snapshot_find(ptr noundef %bs, ptr noundef writeonly captures(none) %sn_info, ptr noundef readonly captures(none) %name) local_unnamed_addr #0 {
entry:
  %sn_tab = alloca ptr, align 8
  %call = tail call zeroext i1 @qemu_in_main_thread() #6
  br i1 %call, label %do.end, label %if.else

if.else:                                          ; preds = %entry
  tail call void @__assert_fail(ptr noundef nonnull @.str.6, ptr noundef nonnull @.str.7, i32 noundef 60, ptr noundef nonnull @__PRETTY_FUNCTION__.bdrv_snapshot_find) #7
  unreachable

do.end:                                           ; preds = %entry
  %call1 = call i32 @bdrv_snapshot_list(ptr noundef %bs, ptr noundef nonnull %sn_tab)
  %cmp = icmp slt i32 %call1, 0
  br i1 %cmp, label %return, label %for.cond.preheader

for.cond.preheader:                               ; preds = %do.end
  %cmp46.not = icmp eq i32 %call1, 0
  %.pre = load ptr, ptr %sn_tab, align 8
  br i1 %cmp46.not, label %for.end, label %for.body.lr.ph

for.body.lr.ph:                                   ; preds = %for.cond.preheader
  %wide.trip.count = zext nneg i32 %call1 to i64
  br label %for.body

for.cond:                                         ; preds = %for.body
  %indvars.iv.next = add nuw nsw i64 %indvars.iv, 1
  %exitcond.not = icmp eq i64 %indvars.iv.next, %wide.trip.count
  br i1 %exitcond.not, label %for.end, label %for.body, !llvm.loop !5

for.body:                                         ; preds = %for.body.lr.ph, %for.cond
  %indvars.iv = phi i64 [ 0, %for.body.lr.ph ], [ %indvars.iv.next, %for.cond ]
  %arrayidx = getelementptr %struct.QEMUSnapshotInfo, ptr %.pre, i64 %indvars.iv
  %name5 = getelementptr inbounds nuw i8, ptr %arrayidx, i64 128
  %call6 = call i32 @strcmp(ptr noundef nonnull dereferenceable(1) %name5, ptr noundef nonnull dereferenceable(1) %name) #8
  %tobool.not = icmp eq i32 %call6, 0
  br i1 %tobool.not, label %if.then7, label %for.cond

if.then7:                                         ; preds = %for.body
  call void @llvm.memcpy.p0.p0.i64(ptr noundef nonnull align 8 dereferenceable(416) %sn_info, ptr noundef nonnull align 8 dereferenceable(416) %arrayidx, i64 416, i1 false)
  br label %for.end

for.end:                                          ; preds = %for.cond, %for.cond.preheader, %if.then7
  %ret.0 = phi i32 [ 0, %if.then7 ], [ -2, %for.cond.preheader ], [ -2, %for.cond ]
  call void @g_free(ptr noundef %.pre) #6
  br label %return

return:                                           ; preds = %do.end, %for.end
  %retval.0 = phi i32 [ %ret.0, %for.end ], [ -2, %do.end ]
  ret i32 %retval.0
}